target datalayout = "e-m:e-p270:32:32-p271:32:32-p272:64:64-i64:64-i128:128-f80:128-n8:16:32:64-S128"
target triple = "x86_64-pc-linux-gnu"

@hf_infiniband_ClassPortInfo_BaseVersion = internal global i32 0, align 4
@hf_infiniband_ClassPortInfo_ClassVersion = internal global i32 0, align 4
@hf_infiniband_ClassPortInfo_CapabilityMask = internal global i32 0, align 4
@hf_infiniband_ClassPortInfo_CapabilityMask2 = internal global i32 0, align 4
@hf_infiniband_ClassPortInfo_RespTimeValue = internal global i32 0, align 4
@hf_infiniband_ClassPortInfo_RedirectGID = internal global i32 0, align 4
@hf_infiniband_ClassPortInfo_RedirectTC = internal global i32 0, align 4
@hf_infiniband_ClassPortInfo_RedirectSL = internal global i32 0, align 4
@hf_infiniband_ClassPortInfo_RedirectFL = internal global i32 0, align 4
@hf_infiniband_ClassPortInfo_RedirectLID = internal global i32 0, align 4
@hf_infiniband_ClassPortInfo_RedirectP_Key = internal global i32 0, align 4
@hf_infiniband_ClassPortInfo_Reserved = internal global i32 0, align 4
@hf_infiniband_ClassPortInfo_RedirectQP = internal global i32 0, align 4
@hf_infiniband_ClassPortInfo_RedirectQ_Key = internal global i32 0, align 4
@hf_infiniband_ClassPortInfo_TrapGID = internal global i32 0, align 4
@hf_infiniband_ClassPortInfo_TrapTC = internal global i32 0, align 4
@hf_infiniband_ClassPortInfo_TrapSL = internal global i32 0, align 4
@hf_infiniband_ClassPortInfo_TrapFL = internal global i32 0, align 4
@hf_infiniband_ClassPortInfo_TrapLID = internal global i32 0, align 4
@hf_infiniband_ClassPortInfo_TrapP_Key = internal global i32 0, align 4
@hf_infiniband_ClassPortInfo_TrapQP = internal global i32 0, align 4
@hf_infiniband_ClassPortInfo_TrapQ_Key = internal global i32 0, align 4

; Function Attrs: null_pointer_is_valid sspstrong uwtable
define internal i32 @parse_ClassPortInfo(ptr noundef %0, ptr noundef %1, ptr noundef %2) #0 {
  %4 = alloca i32, align 4
  %5 = alloca ptr, align 8
  %6 = alloca ptr, align 8
  %7 = alloca ptr, align 8
  %8 = alloca i32, align 4
  %9 = alloca ptr, align 8
  %10 = alloca i32, align 4
  store ptr %0, ptr %5, align 8
  store ptr %1, ptr %6, align 8
  store ptr %2, ptr %7, align 8
  call void @llvm.lifetime.start.p0(i64 4, ptr %8) #18
  %11 = load ptr, ptr %7, align 8
  %12 = load i32, ptr %11, align 4
  store i32 %12, ptr %8, align 4
  call void @llvm.lifetime.start.p0(i64 8, ptr %9) #18
  %13 = load ptr, ptr %5, align 8
  %14 = icmp ne ptr %13, null
  br i1 %14, label %18, label %15

15:                                               ; preds = %3
  %16 = load ptr, ptr %7, align 8
  %17 = load i32, ptr %16, align 4
  store i32 %17, ptr %4, align 4
  store i32 1, ptr %10, align 4
  br label %178

18:                                               ; preds = %3
  %19 = load ptr, ptr %5, align 8
  store ptr %19, ptr %9, align 8
  %20 = load ptr, ptr %9, align 8
  %21 = load i32, ptr @hf_infiniband_ClassPortInfo_BaseVersion, align 4
  %22 = load ptr, ptr %6, align 8
  %23 = load i32, ptr %8, align 4
  %24 = call ptr @proto_tree_add_item(ptr noundef %20, i32 noundef %21, ptr noundef %22, i32 noundef %23, i32 noundef 1, i32 noundef 0)
  %25 = load i32, ptr %8, align 4
  %26 = add i32 %25, 1
  store i32 %26, ptr %8, align 4
  %27 = load ptr, ptr %9, align 8
  %28 = load i32, ptr @hf_infiniband_ClassPortInfo_ClassVersion, align 4
  %29 = load ptr, ptr %6, align 8
  %30 = load i32, ptr %8, align 4
  %31 = call ptr @proto_tree_add_item(ptr noundef %27, i32 noundef %28, ptr noundef %29, i32 noundef %30, i32 noundef 1, i32 noundef 0)
  %32 = load i32, ptr %8, align 4
  %33 = add i32 %32, 1
  store i32 %33, ptr %8, align 4
  %34 = load ptr, ptr %9, align 8
  %35 = load i32, ptr @hf_infiniband_ClassPortInfo_CapabilityMask, align 4
  %36 = load ptr, ptr %6, align 8
  %37 = load i32, ptr %8, align 4
  %38 = call ptr @proto_tree_add_item(ptr noundef %34, i32 noundef %35, ptr noundef %36, i32 noundef %37, i32 noundef 2, i32 noundef 0)
  %39 = load i32, ptr %8, align 4
  %40 = add i32 %39, 2
  store i32 %40, ptr %8, align 4
  %41 = load ptr, ptr %9, align 8
  %42 = load i32, ptr @hf_infiniband_ClassPortInfo_CapabilityMask2, align 4
  %43 = load ptr, ptr %6, align 8
  %44 = load i32, ptr %8, align 4
  %45 = call ptr @proto_tree_add_item(ptr noundef %41, i32 noundef %42, ptr noundef %43, i32 noundef %44, i32 noundef 4, i32 noundef 0)
  %46 = load i32, ptr %8, align 4
  %47 = add i32 %46, 3
  store i32 %47, ptr %8, align 4
  %48 = load ptr, ptr %9, align 8
  %49 = load i32, ptr @hf_infiniband_ClassPortInfo_RespTimeValue, align 4
  %50 = load ptr, ptr %6, align 8
  %51 = load i32, ptr %8, align 4
  %52 = call ptr @proto_tree_add_item(ptr noundef %48, i32 noundef %49, ptr noundef %50, i32 noundef %51, i32 noundef 1, i32 noundef 0)
  %53 = load i32, ptr %8, align 4
  %54 = add i32 %53, 1
  store i32 %54, ptr %8, align 4
  %55 = load ptr, ptr %9, align 8
  %56 = load i32, ptr @hf_infiniband_ClassPortInfo_RedirectGID, align 4
  %57 = load ptr, ptr %6, align 8
  %58 = load i32, ptr %8, align 4
  %59 = call ptr @proto_tree_add_item(ptr noundef %55, i32 noundef %56, ptr noundef %57, i32 noundef %58, i32 noundef 16, i32 noundef 0)
  %60 = load i32, ptr %8, align 4
  %61 = add i32 %60, 16
  store i32 %61, ptr %8, align 4
  %62 = load ptr, ptr %9, align 8
  %63 = load i32, ptr @hf_infiniband_ClassPortInfo_RedirectTC, align 4
  %64 = load ptr, ptr %6, align 8
  %65 = load i32, ptr %8, align 4
  %66 = call ptr @proto_tree_add_item(ptr noundef %62, i32 noundef %63, ptr noundef %64, i32 noundef %65, i32 noundef 1, i32 noundef 0)
  %67 = load i32, ptr %8, align 4
  %68 = add i32 %67, 1
  store i32 %68, ptr %8, align 4
  %69 = load ptr, ptr %9, align 8
  %70 = load i32, ptr @hf_infiniband_ClassPortInfo_RedirectSL, align 4
  %71 = load ptr, ptr %6, align 8
  %72 = load i32, ptr %8, align 4
  %73 = call ptr @proto_tree_add_item(ptr noundef %69, i32 noundef %70, ptr noundef %71, i32 noundef %72, i32 noundef 1, i32 noundef 0)
  %74 = load ptr, ptr %9, align 8
  %75 = load i32, ptr @hf_infiniband_ClassPortInfo_RedirectFL, align 4
  %76 = load ptr, ptr %6, align 8
  %77 = load i32, ptr %8, align 4
  %78 = call ptr @proto_tree_add_item(ptr noundef %74, i32 noundef %75, ptr noundef %76, i32 noundef %77, i32 noundef 3, i32 noundef 0)
  %79 = load i32, ptr %8, align 4
  %80 = add i32 %79, 3
  store i32 %80, ptr %8, align 4
  %81 = load ptr, ptr %9, align 8
  %82 = load i32, ptr @hf_infiniband_ClassPortInfo_RedirectLID, align 4
  %83 = load ptr, ptr %6, align 8
  %84 = load i32, ptr %8, align 4
  %85 = call ptr @proto_tree_add_item(ptr noundef %81, i32 noundef %82, ptr noundef %83, i32 noundef %84, i32 noundef 2, i32 noundef 0)
  %86 = load i32, ptr %8, align 4
  %87 = add i32 %86, 2
  store i32 %87, ptr %8, align 4
  %88 = load ptr, ptr %9, align 8
  %89 = load i32, ptr @hf_infiniband_ClassPortInfo_RedirectP_Key, align 4
  %90 = load ptr, ptr %6, align 8
  %91 = load i32, ptr %8, align 4
  %92 = call ptr @proto_tree_add_item(ptr noundef %88, i32 noundef %89, ptr noundef %90, i32 noundef %91, i32 noundef 2, i32 noundef 0)
  %93 = load i32, ptr %8, align 4
  %94 = add i32 %93, 2
  store i32 %94, ptr %8, align 4
  %95 = load ptr, ptr %9, align 8
  %96 = load i32, ptr @hf_infiniband_ClassPortInfo_Reserved, align 4
  %97 = load ptr, ptr %6, align 8
  %98 = load i32, ptr %8, align 4
  %99 = call ptr @proto_tree_add_item(ptr noundef %95, i32 noundef %96, ptr noundef %97, i32 noundef %98, i32 noundef 1, i32 noundef 0)
  %100 = load i32, ptr %8, align 4
  %101 = add i32 %100, 1
  store i32 %101, ptr %8, align 4
  %102 = load ptr, ptr %9, align 8
  %103 = load i32, ptr @hf_infiniband_ClassPortInfo_RedirectQP, align 4
  %104 = load ptr, ptr %6, align 8
  %105 = load i32, ptr %8, align 4
  %106 = call ptr @proto_tree_add_item(ptr noundef %102, i32 noundef %103, ptr noundef %104, i32 noundef %105, i32 noundef 3, i32 noundef 0)
  %107 = load i32, ptr %8, align 4
  %108 = add i32 %107, 3
  store i32 %108, ptr %8, align 4
  %109 = load ptr, ptr %9, align 8
  %110 = load i32, ptr @hf_infiniband_ClassPortInfo_RedirectQ_Key, align 4
  %111 = load ptr, ptr %6, align 8
  %112 = load i32, ptr %8, align 4
  %113 = call ptr @proto_tree_add_item(ptr noundef %109, i32 noundef %110, ptr noundef %111, i32 noundef %112, i32 noundef 4, i32 noundef 0)
  %114 = load i32, ptr %8, align 4
  %115 = add i32 %114, 4
  store i32 %115, ptr %8, align 4
  %116 = load ptr, ptr %9, align 8
  %117 = load i32, ptr @hf_infiniband_ClassPortInfo_TrapGID, align 4
  %118 = load ptr, ptr %6, align 8
  %119 = load i32, ptr %8, align 4
  %120 = call ptr @proto_tree_add_item(ptr noundef %116, i32 noundef %117, ptr noundef %118, i32 noundef %119, i32 noundef 16, i32 noundef 0)
  %121 = load i32, ptr %8, align 4
  %122 = add i32 %121, 16
  store i32 %122, ptr %8, align 4
  %123 = load ptr, ptr %9, align 8
  %124 = load i32, ptr @hf_infiniband_ClassPortInfo_TrapTC, align 4
  %125 = load ptr, ptr %6, align 8
  %126 = load i32, ptr %8, align 4
  %127 = call ptr @proto_tree_add_item(ptr noundef %123, i32 noundef %124, ptr noundef %125, i32 noundef %126, i32 noundef 1, i32 noundef 0)
  %128 = load i32, ptr %8, align 4
  %129 = add i32 %128, 1
  store i32 %129, ptr %8, align 4
  %130 = load ptr, ptr %9, align 8
  %131 = load i32, ptr @hf_infiniband_ClassPortInfo_TrapSL, align 4
  %132 = load ptr, ptr %6, align 8
  %133 = load i32, ptr %8, align 4
  %134 = call ptr @proto_tree_add_item(ptr noundef %130, i32 noundef %131, ptr noundef %132, i32 noundef %133, i32 noundef 1, i32 noundef 0)
  %135 = load ptr, ptr %9, align 8
  %136 = load i32, ptr @hf_infiniband_ClassPortInfo_TrapFL, align 4
  %137 = load ptr, ptr %6, align 8
  %138 = load i32, ptr %8, align 4
  %139 = call ptr @proto_tree_add_item(ptr noundef %135, i32 noundef %136, ptr noundef %137, i32 noundef %138, i32 noundef 3, i32 noundef 0)
  %140 = load i32, ptr %8, align 4
  %141 = add i32 %140, 3
  store i32 %141, ptr %8, align 4
  %142 = load ptr, ptr %9, align 8
  %143 = load i32, ptr @hf_infiniband_ClassPortInfo_TrapLID, align 4
  %144 = load ptr, ptr %6, align 8
  %145 = load i32, ptr %8, align 4
  %146 = call ptr @proto_tree_add_item(ptr noundef %142, i32 noundef %143, ptr noundef %144, i32 noundef %145, i32 noundef 2, i32 noundef 0)
  %147 = load i32, ptr %8, align 4
  %148 = add i32 %147, 2
  store i32 %148, ptr %8, align 4
  %149 = load ptr, ptr %9, align 8
  %150 = load i32, ptr @hf_infiniband_ClassPortInfo_TrapP_Key, align 4
  %151 = load ptr, ptr %6, align 8
  %152 = load i32, ptr %8, align 4
  %153 = call ptr @proto_tree_add_item(ptr noundef %149, i32 noundef %150, ptr noundef %151, i32 noundef %152, i32 noundef 2, i32 noundef 0)
  %154 = load i32, ptr %8, align 4
  %155 = add i32 %154, 2
  store i32 %155, ptr %8, align 4
  %156 = load ptr, ptr %9, align 8
  %157 = load i32, ptr @hf_infiniband_ClassPortInfo_Reserved, align 4
  %158 = load ptr, ptr %6, align 8
  %159 = load i32, ptr %8, align 4
  %160 = call ptr @proto_tree_add_item(ptr noundef %156, i32 noundef %157, ptr noundef %158, i32 noundef %159, i32 noundef 1, i32 noundef 0)
  %161 = load i32, ptr %8, align 4
  %162 = add i32 %161, 1
  store i32 %162, ptr %8, align 4
  %163 = load ptr, ptr %9, align 8
  %164 = load i32, ptr @hf_infiniband_ClassPortInfo_TrapQP, align 4
  %165 = load ptr, ptr %6, align 8
  %166 = load i32, ptr %8, align 4
  %167 = call ptr @proto_tree_add_item(ptr noundef %163, i32 noundef %164, ptr noundef %165, i32 noundef %166, i32 noundef 3, i32 noundef 0)
  %168 = load i32, ptr %8, align 4
  %169 = add i32 %168, 3
  store i32 %169, ptr %8, align 4
  %170 = load ptr, ptr %9, align 8
  %171 = load i32, ptr @hf_infiniband_ClassPortInfo_TrapQ_Key, align 4
  %172 = load ptr, ptr %6, align 8
  %173 = load i32, ptr %8, align 4
  %174 = call ptr @proto_tree_add_item(ptr noundef %170, i32 noundef %171, ptr noundef %172, i32 noundef %173, i32 noundef 4, i32 noundef 0)
  %175 = load i32, ptr %8, align 4
  %176 = add i32 %175, 4
  store i32 %176, ptr %8, align 4
  %177 = load i32, ptr %8, align 4
  store i32 %177, ptr %4, align 4
  store i32 1, ptr %10, align 4
  br label %178

178:                                              ; preds = %18, %15
  call void @llvm.lifetime.end.p0(i64 8, ptr %9) #18
  call void @llvm.lifetime.end.p0(i64 4, ptr %8) #18
  %179 = load i32, ptr %4, align 4
  ret i32 %179
}