; Function Attrs: null_pointer_is_valid sspstrong uwtable
define internal fastcc void @parse_ClassPortInfo(ptr noundef %0, ptr noundef %1, i32 %.0.val) unnamed_addr #0 {
  %.not = icmp eq ptr %0, null
  br i1 %.not, label %70, label %3

3:                                                ; preds = %2
  %4 = load i32, ptr @hf_infiniband_ClassPortInfo_BaseVersion, align 4
  %5 = tail call ptr @proto_tree_add_item(ptr noundef nonnull %0, i32 noundef %4, ptr noundef %1, i32 noundef %.0.val, i32 noundef 1, i32 noundef 0)
  %6 = add i32 %.0.val, 1
  %7 = load i32, ptr @hf_infiniband_ClassPortInfo_ClassVersion, align 4
  %8 = tail call ptr @proto_tree_add_item(ptr noundef nonnull %0, i32 noundef %7, ptr noundef %1, i32 noundef %6, i32 noundef 1, i32 noundef 0)
  %9 = add i32 %.0.val, 2
  %10 = load i32, ptr @hf_infiniband_ClassPortInfo_CapabilityMask, align 4
  %11 = tail call ptr @proto_tree_add_item(ptr noundef nonnull %0, i32 noundef %10, ptr noundef %1, i32 noundef %9, i32 noundef 2, i32 noundef 0)
  %12 = add i32 %.0.val, 4
  %13 = load i32, ptr @hf_infiniband_ClassPortInfo_CapabilityMask2, align 4
  %14 = tail call ptr @proto_tree_add_item(ptr noundef nonnull %0, i32 noundef %13, ptr noundef %1, i32 noundef %12, i32 noundef 4, i32 noundef 0)
  %15 = add i32 %.0.val, 7
  %16 = load i32, ptr @hf_infiniband_ClassPortInfo_RespTimeValue, align 4
  %17 = tail call ptr @proto_tree_add_item(ptr noundef nonnull %0, i32 noundef %16, ptr noundef %1, i32 noundef %15, i32 noundef 1, i32 noundef 0)
  %18 = add i32 %.0.val, 8
  %19 = load i32, ptr @hf_infiniband_ClassPortInfo_RedirectGID, align 4
  %20 = tail call ptr @proto_tree_add_item(ptr noundef nonnull %0, i32 noundef %19, ptr noundef %1, i32 noundef %18, i32 noundef 16, i32 noundef 0)
  %21 = add i32 %.0.val, 24
  %22 = load i32, ptr @hf_infiniband_ClassPortInfo_RedirectTC, align 4
  %23 = tail call ptr @proto_tree_add_item(ptr noundef nonnull %0, i32 noundef %22, ptr noundef %1, i32 noundef %21, i32 noundef 1, i32 noundef 0)
  %24 = add i32 %.0.val, 25
  %25 = load i32, ptr @hf_infiniband_ClassPortInfo_RedirectSL, align 4
  %26 = tail call ptr @proto_tree_add_item(ptr noundef nonnull %0, i32 noundef %25, ptr noundef %1, i32 noundef %24, i32 noundef 1, i32 noundef 0)
  %27 = load i32, ptr @hf_infiniband_ClassPortInfo_RedirectFL, align 4
  %28 = tail call ptr @proto_tree_add_item(ptr noundef nonnull %0, i32 noundef %27, ptr noundef %1, i32 noundef %24, i32 noundef 3, i32 noundef 0)
  %29 = add i32 %.0.val, 28
  %30 = load i32, ptr @hf_infiniband_ClassPortInfo_RedirectLID, align 4
  %31 = tail call ptr @proto_tree_add_item(ptr noundef nonnull %0, i32 noundef %30, ptr noundef %1, i32 noundef %29, i32 noundef 2, i32 noundef 0)
  %32 = add i32 %.0.val, 30
  %33 = load i32, ptr @hf_infiniband_ClassPortInfo_RedirectP_Key, align 4
  %34 = tail call ptr @proto_tree_add_item(ptr noundef nonnull %0, i32 noundef %33, ptr noundef %1, i32 noundef %32, i32 noundef 2, i32 noundef 0)
  %35 = add i32 %.0.val, 32
  %36 = load i32, ptr @hf_infiniband_ClassPortInfo_Reserved, align 4
  %37 = tail call ptr @proto_tree_add_item(ptr noundef nonnull %0, i32 noundef %36, ptr noundef %1, i32 noundef %35, i32 noundef 1, i32 noundef 0)
  %38 = add i32 %.0.val, 33
  %39 = load i32, ptr @hf_infiniband_ClassPortInfo_RedirectQP, align 4
  %40 = tail call ptr @proto_tree_add_item(ptr noundef nonnull %0, i32 noundef %39, ptr noundef %1, i32 noundef %38, i32 noundef 3, i32 noundef 0)
  %41 = add i32 %.0.val, 36
  %42 = load i32, ptr @hf_infiniband_ClassPortInfo_RedirectQ_Key, align 4
  %43 = tail call ptr @proto_tree_add_item(ptr noundef nonnull %0, i32 noundef %42, ptr noundef %1, i32 noundef %41, i32 noundef 4, i32 noundef 0)
  %44 = add i32 %.0.val, 40
  %45 = load i32, ptr @hf_infiniband_ClassPortInfo_TrapGID, align 4
  %46 = tail call ptr @proto_tree_add_item(ptr noundef nonnull %0, i32 noundef %45, ptr noundef %1, i32 noundef %44, i32 noundef 16, i32 noundef 0)
  %47 = add i32 %.0.val, 56
  %48 = load i32, ptr @hf_infiniband_ClassPortInfo_TrapTC, align 4
  %49 = tail call ptr @proto_tree_add_item(ptr noundef nonnull %0, i32 noundef %48, ptr noundef %1, i32 noundef %47, i32 noundef 1, i32 noundef 0)
  %50 = add i32 %.0.val, 57
  %51 = load i32, ptr @hf_infiniband_ClassPortInfo_TrapSL, align 4
  %52 = tail call ptr @proto_tree_add_item(ptr noundef nonnull %0, i32 noundef %51, ptr noundef %1, i32 noundef %50, i32 noundef 1, i32 noundef 0)
  %53 = load i32, ptr @hf_infiniband_ClassPortInfo_TrapFL, align 4
  %54 = tail call ptr @proto_tree_add_item(ptr noundef nonnull %0, i32 noundef %53, ptr noundef %1, i32 noundef %50, i32 noundef 3, i32 noundef 0)
  %55 = add i32 %.0.val, 60
  %56 = load i32, ptr @hf_infiniband_ClassPortInfo_TrapLID, align 4
  %57 = tail call ptr @proto_tree_add_item(ptr noundef nonnull %0, i32 noundef %56, ptr noundef %1, i32 noundef %55, i32 noundef 2, i32 noundef 0)
  %58 = add i32 %.0.val, 62
  %59 = load i32, ptr @hf_infiniband_ClassPortInfo_TrapP_Key, align 4
  %60 = tail call ptr @proto_tree_add_item(ptr noundef nonnull %0, i32 noundef %59, ptr noundef %1, i32 noundef %58, i32 noundef 2, i32 noundef 0)
  %61 = add i32 %.0.val, 64
  %62 = load i32, ptr @hf_infiniband_ClassPortInfo_Reserved, align 4
  %63 = tail call ptr @proto_tree_add_item(ptr noundef nonnull %0, i32 noundef %62, ptr noundef %1, i32 noundef %61, i32 noundef 1, i32 noundef 0)
  %64 = add i32 %.0.val, 65
  %65 = load i32, ptr @hf_infiniband_ClassPortInfo_TrapQP, align 4
  %66 = tail call ptr @proto_tree_add_item(ptr noundef nonnull %0, i32 noundef %65, ptr noundef %1, i32 noundef %64, i32 noundef 3, i32 noundef 0)
  %67 = add i32 %.0.val, 68
  %68 = load i32, ptr @hf_infiniband_ClassPortInfo_TrapQ_Key, align 4
  %69 = tail call ptr @proto_tree_add_item(ptr noundef nonnull %0, i32 noundef %68, ptr noundef %1, i32 noundef %67, i32 noundef 4, i32 noundef 0)
  br label %70

70:                                               ; preds = %2, %3
  ret void
}